target datalayout = "e-m:e-p270:32:32-p271:32:32-p272:64:64-i64:64-i128:128-f80:128-n8:16:32:64-S128"
target triple = "x86_64-unknown-linux-gnu"

%"class.boost::detail::shared_count" = type { ptr }
%"class.QuantLib::Date" = type { i64 }
%"class.QuantLib::DayCounter" = type { %"class.boost::shared_ptr.16" }
%"class.boost::shared_ptr.16" = type { ptr, %"class.boost::detail::shared_count" }
%"class.boost::shared_ptr.53" = type { ptr, %"class.boost::detail::shared_count" }
%"class.QuantLib::DigitalCmsLeg" = type <{ %"class.QuantLib::Schedule", %"class.boost::shared_ptr.63", %"class.std::vector.35", %"class.QuantLib::DayCounter", i32, [4 x i8], %"class.std::vector.64", %"class.std::vector.35", %"class.std::vector.35", i8, [7 x i8], %"class.std::vector.35", %"class.std::vector.35", i32, i8, [3 x i8], %"class.std::vector.35", %"class.std::vector.35", i32, i8, [3 x i8], %"class.boost::shared_ptr.53", i8, [7 x i8] }>
%"class.QuantLib::Schedule" = type { %"class.boost::optional", %"class.QuantLib::Calendar", i32, %"class.boost::optional.54", %"class.boost::optional.55", %"class.boost::optional.57", %"class.QuantLib::Date", %"class.QuantLib::Date", %"class.std::vector.30", %"class.std::vector.59" }
%"class.boost::optional" = type { %"class.boost::optional_detail::optional_base" }
%"class.boost::optional_detail::optional_base" = type { i8, [3 x i8], %"class.boost::optional_detail::aligned_storage" }
%"class.boost::optional_detail::aligned_storage" = type { %"union.boost::optional_detail::aligned_storage<QuantLib::Period>::dummy_u" }
%"union.boost::optional_detail::aligned_storage<QuantLib::Period>::dummy_u" = type { [8 x i8] }
%"class.QuantLib::Calendar" = type { %"class.boost::shared_ptr.17" }
%"class.boost::shared_ptr.17" = type { ptr, %"class.boost::detail::shared_count" }
%"class.boost::optional.54" = type { %"class.boost::optional_detail::tc_optional_base" }
%"class.boost::optional_detail::tc_optional_base" = type { i8, i32 }
%"class.boost::optional.55" = type { %"class.boost::optional_detail::tc_optional_base.56" }
%"class.boost::optional_detail::tc_optional_base.56" = type { i8, i32 }
%"class.boost::optional.57" = type { %"class.boost::optional_detail::tc_optional_base.58" }
%"class.boost::optional_detail::tc_optional_base.58" = type { i8, i8 }
%"class.std::vector.30" = type { %"struct.std::_Vector_base.31" }
%"struct.std::_Vector_base.31" = type { %"struct.std::_Vector_base<QuantLib::Date, std::allocator<QuantLib::Date>>::_Vector_impl" }
%"struct.std::_Vector_base<QuantLib::Date, std::allocator<QuantLib::Date>>::_Vector_impl" = type { %"struct.std::_Vector_base<QuantLib::Date, std::allocator<QuantLib::Date>>::_Vector_impl_data" }
%"struct.std::_Vector_base<QuantLib::Date, std::allocator<QuantLib::Date>>::_Vector_impl_data" = type { ptr, ptr, ptr }
%"class.std::vector.59" = type { %"struct.std::_Bvector_base" }
%"struct.std::_Bvector_base" = type { %"struct.std::_Bvector_base<std::allocator<bool>>::_Bvector_impl" }
%"struct.std::_Bvector_base<std::allocator<bool>>::_Bvector_impl" = type { %"struct.std::_Bvector_base<std::allocator<bool>>::_Bvector_impl_data" }
%"struct.std::_Bvector_base<std::allocator<bool>>::_Bvector_impl_data" = type { %"struct.std::_Bit_iterator", %"struct.std::_Bit_iterator", ptr }
%"struct.std::_Bit_iterator" = type { %"struct.std::_Bit_iterator_base.base", [4 x i8] }
%"struct.std::_Bit_iterator_base.base" = type <{ ptr, i32 }>
%"class.boost::shared_ptr.63" = type { ptr, %"class.boost::detail::shared_count" }
%"class.std::vector.64" = type { %"struct.std::_Vector_base.65" }
%"struct.std::_Vector_base.65" = type { %"struct.std::_Vector_base<unsigned int, std::allocator<unsigned int>>::_Vector_impl" }
%"struct.std::_Vector_base<unsigned int, std::allocator<unsigned int>>::_Vector_impl" = type { %"struct.std::_Vector_base<unsigned int, std::allocator<unsigned int>>::_Vector_impl_data" }
%"struct.std::_Vector_base<unsigned int, std::allocator<unsigned int>>::_Vector_impl_data" = type { ptr, ptr, ptr }
%"class.std::vector.35" = type { %"struct.std::_Vector_base.36" }
%"struct.std::_Vector_base.36" = type { %"struct.std::_Vector_base<double, std::allocator<double>>::_Vector_impl" }
%"struct.std::_Vector_base<double, std::allocator<double>>::_Vector_impl" = type { %"struct.std::_Vector_base<double, std::allocator<double>>::_Vector_impl_data" }
%"struct.std::_Vector_base<double, std::allocator<double>>::_Vector_impl_data" = type { ptr, ptr, ptr }
%"class.std::vector.69" = type { %"struct.std::_Vector_base.70" }
%"struct.std::_Vector_base.70" = type { %"struct.std::_Vector_base<boost::shared_ptr<QuantLib::CashFlow>, std::allocator<boost::shared_ptr<QuantLib::CashFlow>>>::_Vector_impl" }
%"struct.std::_Vector_base<boost::shared_ptr<QuantLib::CashFlow>, std::allocator<boost::shared_ptr<QuantLib::CashFlow>>>::_Vector_impl" = type { %"struct.std::_Vector_base<boost::shared_ptr<QuantLib::CashFlow>, std::allocator<boost::shared_ptr<QuantLib::CashFlow>>>::_Vector_impl_data" }
%"struct.std::_Vector_base<boost::shared_ptr<QuantLib::CashFlow>, std::allocator<boost::shared_ptr<QuantLib::CashFlow>>>::_Vector_impl_data" = type { ptr, ptr, ptr }

; Function Attrs: mustprogress uwtable
define void @_ZNK8QuantLib13DigitalCmsLegcvSt6vectorIN5boost10shared_ptrINS_8CashFlowEEESaIS5_EEEv(ptr dead_on_unwind noalias writable sret(%"class.std::vector.69") align 8 %agg.result, ptr noundef nonnull align 8 dereferenceable(409) %this) #2 align 2 {
entry:
  %result.ptr = alloca ptr, align 8
  %this.addr = alloca ptr, align 8
  store ptr %agg.result, ptr %result.ptr, align 8
  store ptr %this, ptr %this.addr, align 8, !tbaa !3
  %this1 = load ptr, ptr %this.addr, align 8
  %schedule_ = getelementptr inbounds nuw %"class.QuantLib::DigitalCmsLeg", ptr %this1, i32 0, i32 0
  %notionals_ = getelementptr inbounds nuw %"class.QuantLib::DigitalCmsLeg", ptr %this1, i32 0, i32 2
  %index_ = getelementptr inbounds nuw %"class.QuantLib::DigitalCmsLeg", ptr %this1, i32 0, i32 1
  %paymentDayCounter_ = getelementptr inbounds nuw %"class.QuantLib::DigitalCmsLeg", ptr %this1, i32 0, i32 3
  %paymentAdjustment_ = getelementptr inbounds nuw %"class.QuantLib::DigitalCmsLeg", ptr %this1, i32 0, i32 4
  %0 = load i32, ptr %paymentAdjustment_, align 8, !tbaa !41
  %fixingDays_ = getelementptr inbounds nuw %"class.QuantLib::DigitalCmsLeg", ptr %this1, i32 0, i32 6
  %gearings_ = getelementptr inbounds nuw %"class.QuantLib::DigitalCmsLeg", ptr %this1, i32 0, i32 7
  %spreads_ = getelementptr inbounds nuw %"class.QuantLib::DigitalCmsLeg", ptr %this1, i32 0, i32 8
  %inArrears_ = getelementptr inbounds nuw %"class.QuantLib::DigitalCmsLeg", ptr %this1, i32 0, i32 9
  %1 = load i8, ptr %inArrears_, align 8, !tbaa !79, !range !15, !noundef !16
  %loadedv = trunc i8 %1 to i1
  %callStrikes_ = getelementptr inbounds nuw %"class.QuantLib::DigitalCmsLeg", ptr %this1, i32 0, i32 11
  %longCallOption_ = getelementptr inbounds nuw %"class.QuantLib::DigitalCmsLeg", ptr %this1, i32 0, i32 13
  %2 = load i32, ptr %longCallOption_, align 8, !tbaa !80
  %callATM_ = getelementptr inbounds nuw %"class.QuantLib::DigitalCmsLeg", ptr %this1, i32 0, i32 14
  %3 = load i8, ptr %callATM_, align 4, !tbaa !81, !range !15, !noundef !16
  %loadedv2 = trunc i8 %3 to i1
  %callPayoffs_ = getelementptr inbounds nuw %"class.QuantLib::DigitalCmsLeg", ptr %this1, i32 0, i32 12
  %putStrikes_ = getelementptr inbounds nuw %"class.QuantLib::DigitalCmsLeg", ptr %this1, i32 0, i32 16
  %longPutOption_ = getelementptr inbounds nuw %"class.QuantLib::DigitalCmsLeg", ptr %this1, i32 0, i32 18
  %4 = load i32, ptr %longPutOption_, align 8, !tbaa !82
  %putATM_ = getelementptr inbounds nuw %"class.QuantLib::DigitalCmsLeg", ptr %this1, i32 0, i32 19
  %5 = load i8, ptr %putATM_, align 4, !tbaa !83, !range !15, !noundef !16
  %loadedv3 = trunc i8 %5 to i1
  %putPayoffs_ = getelementptr inbounds nuw %"class.QuantLib::DigitalCmsLeg", ptr %this1, i32 0, i32 17
  %replication_ = getelementptr inbounds nuw %"class.QuantLib::DigitalCmsLeg", ptr %this1, i32 0, i32 21
  %nakedOption_ = getelementptr inbounds nuw %"class.QuantLib::DigitalCmsLeg", ptr %this1, i32 0, i32 22
  %6 = load i8, ptr %nakedOption_, align 8, !tbaa !94, !range !15, !noundef !16
  %loadedv4 = trunc i8 %6 to i1
  call void @_ZN8QuantLib18FloatingDigitalLegINS_9SwapIndexENS_9CmsCouponENS_16DigitalCmsCouponEEESt6vectorIN5boost10shared_ptrINS_8CashFlowEEESaIS8_EERKNS_8ScheduleERKS4_IdSaIdEERKNS6_IT_EERKNS_10DayCounterENS_21BusinessDayConventionERKS4_IjSaIjEESH_SH_bSH_NS_8Position4TypeEbSH_SH_SV_bSH_RKNS6_INS_18DigitalReplicationEEEb(ptr dead_on_unwind writable sret(%"class.std::vector.69") align 8 %agg.result, ptr noundef nonnull align 8 dereferenceable(136) %schedule_, ptr noundef nonnull align 8 dereferenceable(24) %notionals_, ptr noundef nonnull align 8 dereferenceable(16) %index_, ptr noundef nonnull align 8 dereferenceable(16) %paymentDayCounter_, i32 noundef %0, ptr noundef nonnull align 8 dereferenceable(24) %fixingDays_, ptr noundef nonnull align 8 dereferenceable(24) %gearings_, ptr noundef nonnull align 8 dereferenceable(24) %spreads_, i1 noundef zeroext %loadedv, ptr noundef nonnull align 8 dereferenceable(24) %callStrikes_, i32 noundef %2, i1 noundef zeroext %loadedv2, ptr noundef nonnull align 8 dereferenceable(24) %callPayoffs_, ptr noundef nonnull align 8 dereferenceable(24) %putStrikes_, i32 noundef %4, i1 noundef zeroext %loadedv3, ptr noundef nonnull align 8 dereferenceable(24) %putPayoffs_, ptr noundef nonnull align 8 dereferenceable(16) %replication_, i1 noundef zeroext %loadedv4)
  ret void
}